; Function Attrs: mustprogress nounwind uwtable
define hidden void @_ZN13ObjArrayKlassC2EiP5KlassP6Symbol(ptr noundef nonnull align 8 dereferenceable(232) %0, i32 noundef %1, ptr noundef %2, ptr noundef %3) unnamed_addr #0 align 2 {
  tail call void @_ZN10ArrayKlassC2EP6SymbolN5Klass9KlassKindE(ptr noundef nonnull align 8 dereferenceable(216) %0, ptr noundef %3, i32 noundef 6) #12
  store ptr getelementptr inbounds inrange(-16, 336) (i8, ptr @_ZTV13ObjArrayKlass, i64 16), ptr %0, align 8
  %5 = getelementptr inbounds i8, ptr %0, i64 196
  store i32 %1, ptr %5, align 4
  %6 = getelementptr inbounds i8, ptr %0, i64 216
  store ptr %2, ptr %6, align 8
  %7 = getelementptr inbounds i8, ptr %2, i64 12
  %8 = load i32, ptr %7, align 4
  %9 = icmp eq i32 %8, 6
  br i1 %9, label %10, label %13

10:                                               ; preds = %4
  %11 = getelementptr inbounds i8, ptr %2, i64 224
  %12 = load ptr, ptr %11, align 8
  br label %13

13:                                               ; preds = %4, %10
  %.0 = phi ptr [ %12, %10 ], [ %2, %4 ]
  %14 = getelementptr inbounds i8, ptr %0, i64 224
  store ptr %.0, ptr %14, align 8
  %15 = getelementptr inbounds i8, ptr %.0, i64 152
  %16 = load ptr, ptr %15, align 8
  %17 = getelementptr inbounds i8, ptr %0, i64 152
  store ptr %16, ptr %17, align 8
  %18 = load i32, ptr %7, align 4
  %19 = icmp sgt i32 %18, 4
  br i1 %19, label %20, label %22

20:                                               ; preds = %13
  %21 = getelementptr inbounds i8, ptr %0, i64 208
  store volatile ptr %2, ptr %21, align 8
  br label %22

22:                                               ; preds = %20, %13
  %23 = tail call noundef i32 @_ZN5Klass19array_layout_helperE9BasicType(i8 noundef zeroext 12) #12
  %24 = getelementptr inbounds i8, ptr %0, i64 8
  store i32 %23, ptr %24, align 8
  ret void
}